target datalayout = "e-m:e-p270:32:32-p271:32:32-p272:64:64-i64:64-i128:128-f80:128-n8:16:32:64-S128"
target triple = "x86_64-pc-linux-gnu"

%struct._object = type { %union.anon, ptr }
%union.anon = type { i64 }
%struct._typeobject = type { %struct.PyVarObject, ptr, i64, i64, ptr, i64, ptr, ptr, ptr, ptr, ptr, ptr, ptr, ptr, ptr, ptr, ptr, ptr, ptr, i64, ptr, ptr, ptr, ptr, i64, ptr, ptr, ptr, ptr, ptr, ptr, ptr, ptr, ptr, i64, ptr, ptr, ptr, ptr, ptr, ptr, ptr, ptr, ptr, ptr, ptr, i32, ptr, ptr, i8, i16 }
%struct.PyVarObject = type { %struct._object, i64 }
%struct.arraydescr = type { i8, i32, ptr, ptr, ptr, ptr, i32, i32 }
%struct.arrayobject = type { %struct.PyVarObject, ptr, i64, ptr, ptr, i64 }

@PyExc_ValueError = external global ptr, align 8
@_Py_NoneStruct = external global %struct._object, align 8
@.str.87 = private unnamed_addr constant [12 x i8] c"fromunicode\00", align 1
@.str.111 = private unnamed_addr constant [9 x i8] c"argument\00", align 1
@.str.112 = private unnamed_addr constant [4 x i8] c"str\00", align 1
@.str.113 = private unnamed_addr constant [69 x i8] c"fromunicode() may only be called on unicode type arrays ('u' or 'w')\00", align 1

; Function Attrs: inlinehint nounwind uwtable
define internal i64 @Py_SIZE(ptr noundef %0) #3 {
  %2 = alloca ptr, align 8
  store ptr %0, ptr %2, align 8, !tbaa !3
  %3 = load ptr, ptr %2, align 8, !tbaa !3
  %4 = getelementptr inbounds nuw %struct.PyVarObject, ptr %3, i32 0, i32 1
  %5 = load i64, ptr %4, align 8, !tbaa !62
  ret i64 %5
}

; Function Attrs: nounwind uwtable
define internal ptr @array_array_fromunicode_impl(ptr noundef %0, ptr noundef %1) #0 {
  %3 = alloca ptr, align 8
  %4 = alloca ptr, align 8
  %5 = alloca ptr, align 8
  %6 = alloca i32, align 4
  %7 = alloca i32, align 4
  %8 = alloca i64, align 8
  %9 = alloca i64, align 8
  %10 = alloca i64, align 8
  %11 = alloca i64, align 8
  %12 = alloca i64, align 8
  %13 = alloca ptr, align 8
  store ptr %0, ptr %4, align 8, !tbaa !68
  store ptr %1, ptr %5, align 8, !tbaa !3
  call void @llvm.lifetime.start.p0(i64 4, ptr %6) #8
  %14 = load ptr, ptr %4, align 8, !tbaa !68
  %15 = getelementptr inbounds nuw %struct.arrayobject, ptr %14, i32 0, i32 3
  %16 = load ptr, ptr %15, align 8, !tbaa !99
  %17 = getelementptr inbounds nuw %struct.arraydescr, ptr %16, i32 0, i32 0
  %18 = load i8, ptr %17, align 8, !tbaa !41
  %19 = sext i8 %18 to i32
  store i32 %19, ptr %6, align 4, !tbaa !12
  %20 = load i32, ptr %6, align 4, !tbaa !12
  %21 = icmp ne i32 %20, 117
  br i1 %21, label %22, label %27

22:                                               ; preds = %2
  %23 = load i32, ptr %6, align 4, !tbaa !12
  %24 = icmp ne i32 %23, 119
  br i1 %24, label %25, label %27

25:                                               ; preds = %22
  %26 = load ptr, ptr @PyExc_ValueError, align 8, !tbaa !3
  call void @PyErr_SetString(ptr noundef %26, ptr noundef @.str.113)
  store ptr null, ptr %3, align 8
  store i32 1, ptr %7, align 4
  br label %97

27:                                               ; preds = %22, %2
  %28 = load i32, ptr %6, align 4, !tbaa !12
  %29 = icmp eq i32 %28, 117
  br i1 %29, label %30, label %63

30:                                               ; preds = %27
  call void @llvm.lifetime.start.p0(i64 8, ptr %8) #8
  %31 = load ptr, ptr %5, align 8, !tbaa !3
  %32 = call i64 @PyUnicode_AsWideChar(ptr noundef %31, ptr noundef null, i64 noundef 0)
  store i64 %32, ptr %8, align 8, !tbaa !21
  %33 = load i64, ptr %8, align 8, !tbaa !21
  %34 = icmp sgt i64 %33, 1
  br i1 %34, label %35, label %59

35:                                               ; preds = %30
  %36 = load i64, ptr %8, align 8, !tbaa !21
  %37 = add i64 %36, -1
  store i64 %37, ptr %8, align 8, !tbaa !21
  call void @llvm.lifetime.start.p0(i64 8, ptr %9) #8
  %38 = load ptr, ptr %4, align 8, !tbaa !68
  %39 = call i64 @Py_SIZE(ptr noundef %38)
  store i64 %39, ptr %9, align 8, !tbaa !21
  %40 = load ptr, ptr %4, align 8, !tbaa !68
  %41 = load i64, ptr %9, align 8, !tbaa !21
  %42 = load i64, ptr %8, align 8, !tbaa !21
  %43 = add i64 %41, %42
  %44 = call i32 @array_resize(ptr noundef %40, i64 noundef %43)
  %45 = icmp eq i32 %44, -1
  br i1 %45, label %46, label %47

46:                                               ; preds = %35
  store ptr null, ptr %3, align 8
  store i32 1, ptr %7, align 4
  br label %56

47:                                               ; preds = %35
  %48 = load ptr, ptr %5, align 8, !tbaa !3
  %49 = load ptr, ptr %4, align 8, !tbaa !68
  %50 = getelementptr inbounds nuw %struct.arrayobject, ptr %49, i32 0, i32 1
  %51 = load ptr, ptr %50, align 8, !tbaa !70
  %52 = load i64, ptr %9, align 8, !tbaa !21
  %53 = getelementptr i32, ptr %51, i64 %52
  %54 = load i64, ptr %8, align 8, !tbaa !21
  %55 = call i64 @PyUnicode_AsWideChar(ptr noundef %48, ptr noundef %53, i64 noundef %54)
  store i32 0, ptr %7, align 4
  br label %56

56:                                               ; preds = %47, %46
  call void @llvm.lifetime.end.p0(i64 8, ptr %9) #8
  %57 = load i32, ptr %7, align 4
  switch i32 %57, label %60 [
    i32 0, label %58
  ]

58:                                               ; preds = %56
  br label %59

59:                                               ; preds = %58, %30
  store i32 0, ptr %7, align 4
  br label %60

60:                                               ; preds = %59, %56
  call void @llvm.lifetime.end.p0(i64 8, ptr %8) #8
  %61 = load i32, ptr %7, align 4
  switch i32 %61, label %97 [
    i32 0, label %62
  ]

62:                                               ; preds = %60
  br label %96

63:                                               ; preds = %27
  call void @llvm.lifetime.start.p0(i64 8, ptr %10) #8
  %64 = load ptr, ptr %5, align 8, !tbaa !3
  %65 = call i64 @PyUnicode_GetLength(ptr noundef %64)
  store i64 %65, ptr %10, align 8, !tbaa !21
  call void @llvm.lifetime.start.p0(i64 8, ptr %11) #8
  %66 = load ptr, ptr %4, align 8, !tbaa !68
  %67 = call i64 @Py_SIZE(ptr noundef %66)
  store i64 %67, ptr %11, align 8, !tbaa !21
  call void @llvm.lifetime.start.p0(i64 8, ptr %12) #8
  %68 = load i64, ptr %11, align 8, !tbaa !21
  %69 = load i64, ptr %10, align 8, !tbaa !21
  %70 = add i64 %68, %69
  store i64 %70, ptr %12, align 8, !tbaa !21
  %71 = load i64, ptr %12, align 8, !tbaa !21
  %72 = icmp slt i64 %71, 0
  br i1 %72, label %76, label %73

73:                                               ; preds = %63
  %74 = load i64, ptr %12, align 8, !tbaa !21
  %75 = icmp ugt i64 %74, 2305843009213693951
  br i1 %75, label %76, label %78

76:                                               ; preds = %73, %63
  %77 = call ptr @PyErr_NoMemory()
  store ptr %77, ptr %3, align 8
  store i32 1, ptr %7, align 4
  br label %93

78:                                               ; preds = %73
  %79 = load ptr, ptr %4, align 8, !tbaa !68
  %80 = load i64, ptr %12, align 8, !tbaa !21
  %81 = call i32 @array_resize(ptr noundef %79, i64 noundef %80)
  %82 = icmp eq i32 %81, -1
  br i1 %82, label %83, label %84

83:                                               ; preds = %78
  store ptr null, ptr %3, align 8
  store i32 1, ptr %7, align 4
  br label %93

84:                                               ; preds = %78
  call void @llvm.lifetime.start.p0(i64 8, ptr %13) #8
  %85 = load ptr, ptr %5, align 8, !tbaa !3
  %86 = load ptr, ptr %4, align 8, !tbaa !68
  %87 = getelementptr inbounds nuw %struct.arrayobject, ptr %86, i32 0, i32 1
  %88 = load ptr, ptr %87, align 8, !tbaa !70
  %89 = load i64, ptr %11, align 8, !tbaa !21
  %90 = getelementptr i32, ptr %88, i64 %89
  %91 = load i64, ptr %10, align 8, !tbaa !21
  %92 = call ptr @PyUnicode_AsUCS4(ptr noundef %85, ptr noundef %90, i64 noundef %91, i32 noundef 0)
  store ptr %92, ptr %13, align 8, !tbaa !74
  call void @llvm.lifetime.end.p0(i64 8, ptr %13) #8
  store i32 0, ptr %7, align 4
  br label %93

93:                                               ; preds = %84, %83, %76
  call void @llvm.lifetime.end.p0(i64 8, ptr %12) #8
  call void @llvm.lifetime.end.p0(i64 8, ptr %11) #8
  call void @llvm.lifetime.end.p0(i64 8, ptr %10) #8
  %94 = load i32, ptr %7, align 4
  switch i32 %94, label %97 [
    i32 0, label %95
  ]

95:                                               ; preds = %93
  br label %96

96:                                               ; preds = %95, %62
  store ptr @_Py_NoneStruct, ptr %3, align 8
  store i32 1, ptr %7, align 4
  br label %97

97:                                               ; preds = %96, %93, %60, %25
  call void @llvm.lifetime.end.p0(i64 4, ptr %6) #8
  %98 = load ptr, ptr %3, align 8
  ret ptr %98
}

; Function Attrs: inlinehint nounwind uwtable
define internal i32 @PyType_HasFeature(ptr noundef %0, i64 noundef %1) #3 {
  %3 = alloca ptr, align 8
  %4 = alloca i64, align 8
  %5 = alloca i64, align 8
  store ptr %0, ptr %3, align 8, !tbaa !18
  store i64 %1, ptr %4, align 8, !tbaa !21
  call void @llvm.lifetime.start.p0(i64 8, ptr %5) #8
  %6 = load ptr, ptr %3, align 8, !tbaa !18
  %7 = getelementptr inbounds nuw %struct._typeobject, ptr %6, i32 0, i32 19
  %8 = load i64, ptr %7, align 8, !tbaa !23
  store i64 %8, ptr %5, align 8, !tbaa !21
  %9 = load i64, ptr %5, align 8, !tbaa !21
  %10 = load i64, ptr %4, align 8, !tbaa !21
  %11 = and i64 %9, %10
  %12 = icmp ne i64 %11, 0
  %13 = zext i1 %12 to i32
  call void @llvm.lifetime.end.p0(i64 8, ptr %5) #8
  ret i32 %13
}

; Function Attrs: inlinehint nounwind uwtable
define internal ptr @_Py_TYPE(ptr noundef %0) #3 {
  %2 = alloca ptr, align 8
  store ptr %0, ptr %2, align 8, !tbaa !3
  %3 = load ptr, ptr %2, align 8, !tbaa !3
  %4 = getelementptr inbounds nuw %struct._object, ptr %3, i32 0, i32 1
  %5 = load ptr, ptr %4, align 8, !tbaa !32
  ret ptr %5
}

; Function Attrs: nounwind uwtable
define internal ptr @array_array_fromunicode(ptr noundef %0, ptr noundef %1) #0 {
  %3 = alloca ptr, align 8
  %4 = alloca ptr, align 8
  %5 = alloca ptr, align 8
  %6 = alloca ptr, align 8
  store ptr %0, ptr %3, align 8, !tbaa !3
  store ptr %1, ptr %4, align 8, !tbaa !3
  call void @llvm.lifetime.start.p0(i64 8, ptr %5) #8
  store ptr null, ptr %5, align 8, !tbaa !3
  call void @llvm.lifetime.start.p0(i64 8, ptr %6) #8
  %7 = load ptr, ptr %4, align 8, !tbaa !3
  %8 = call ptr @_Py_TYPE(ptr noundef %7)
  %9 = call i32 @PyType_HasFeature(ptr noundef %8, i64 noundef 268435456)
  %10 = icmp ne i32 %9, 0
  br i1 %10, label %13, label %11

11:                                               ; preds = %2
  %12 = load ptr, ptr %4, align 8, !tbaa !3
  call void @_PyArg_BadArgument(ptr noundef @.str.87, ptr noundef @.str.111, ptr noundef @.str.112, ptr noundef %12)
  br label %18

13:                                               ; preds = %2
  %14 = load ptr, ptr %4, align 8, !tbaa !3
  store ptr %14, ptr %6, align 8, !tbaa !3
  %15 = load ptr, ptr %3, align 8, !tbaa !3
  %16 = load ptr, ptr %6, align 8, !tbaa !3
  %17 = call ptr @array_array_fromunicode_impl(ptr noundef %15, ptr noundef %16)
  store ptr %17, ptr %5, align 8, !tbaa !3
  br label %18

18:                                               ; preds = %13, %11
  %19 = load ptr, ptr %5, align 8, !tbaa !3
  call void @llvm.lifetime.end.p0(i64 8, ptr %6) #8
  call void @llvm.lifetime.end.p0(i64 8, ptr %5) #8
  ret ptr %19
}