; Function Attrs: nounwind uwtable
define internal ptr @array_array_fromunicode(ptr noundef captures(none) %0, ptr noundef %1) #0 {
  %3 = getelementptr i8, ptr %1, i64 8
  %.val = load ptr, ptr %3, align 8, !tbaa !19
  %4 = getelementptr i8, ptr %.val, i64 168
  %.val6 = load i64, ptr %4, align 8, !tbaa !20
  %5 = and i64 %.val6, 268435456
  %.not = icmp eq i64 %5, 0
  br i1 %.not, label %6, label %7

6:                                                ; preds = %2
  tail call void @_PyArg_BadArgument(ptr noundef nonnull @.str.87, ptr noundef nonnull @.str.111, ptr noundef nonnull @.str.112, ptr noundef nonnull %1) #11
  br label %array_array_fromunicode_impl.exit

7:                                                ; preds = %2
  %8 = getelementptr inbounds nuw i8, ptr %0, i64 40
  %9 = load ptr, ptr %8, align 8, !tbaa !76
  %10 = load i8, ptr %9, align 8, !tbaa !36
  %11 = and i8 %10, -3
  %or.cond.not.i = icmp eq i8 %11, 117
  br i1 %or.cond.not.i, label %14, label %12

12:                                               ; preds = %7
  %13 = load ptr, ptr @PyExc_ValueError, align 8, !tbaa !18
  tail call void @PyErr_SetString(ptr noundef %13, ptr noundef nonnull @.str.113) #11
  br label %array_array_fromunicode_impl.exit

14:                                               ; preds = %7
  %15 = icmp eq i8 %10, 117
  br i1 %15, label %16, label %29

16:                                               ; preds = %14
  %17 = tail call i64 @PyUnicode_AsWideChar(ptr noundef nonnull %1, ptr noundef null, i64 noundef 0) #11
  %18 = icmp sgt i64 %17, 1
  br i1 %18, label %19, label %array_array_fromunicode_impl.exit

19:                                               ; preds = %16
  %20 = add nsw i64 %17, -1
  %21 = getelementptr i8, ptr %0, i64 16
  %.val41.i = load i64, ptr %21, align 8, !tbaa !40
  %22 = add i64 %.val41.i, %20
  %23 = tail call fastcc i32 @array_resize(ptr noundef nonnull %0, i64 noundef %22)
  %.not.i = icmp eq i32 %23, -1
  br i1 %.not.i, label %array_array_fromunicode_impl.exit, label %24

24:                                               ; preds = %19
  %25 = getelementptr inbounds nuw i8, ptr %0, i64 24
  %26 = load ptr, ptr %25, align 8, !tbaa !53
  %27 = getelementptr i32, ptr %26, i64 %.val41.i
  %28 = tail call i64 @PyUnicode_AsWideChar(ptr noundef nonnull %1, ptr noundef %27, i64 noundef %20) #11
  br label %array_array_fromunicode_impl.exit

29:                                               ; preds = %14
  %30 = tail call i64 @PyUnicode_GetLength(ptr noundef nonnull %1) #11
  %31 = getelementptr i8, ptr %0, i64 16
  %.val.i = load i64, ptr %31, align 8, !tbaa !40
  %32 = add i64 %.val.i, %30
  %33 = icmp ugt i64 %32, 2305843009213693951
  br i1 %33, label %34, label %36

34:                                               ; preds = %29
  %35 = tail call ptr @PyErr_NoMemory() #11
  br label %array_array_fromunicode_impl.exit

36:                                               ; preds = %29
  %37 = tail call fastcc i32 @array_resize(ptr noundef nonnull %0, i64 noundef %32)
  %38 = icmp eq i32 %37, -1
  br i1 %38, label %array_array_fromunicode_impl.exit, label %39

39:                                               ; preds = %36
  %40 = getelementptr inbounds nuw i8, ptr %0, i64 24
  %41 = load ptr, ptr %40, align 8, !tbaa !53
  %42 = getelementptr i32, ptr %41, i64 %.val.i
  %43 = tail call ptr @PyUnicode_AsUCS4(ptr noundef nonnull %1, ptr noundef %42, i64 noundef %30, i32 noundef 0) #11
  br label %array_array_fromunicode_impl.exit

array_array_fromunicode_impl.exit:                ; preds = %39, %36, %34, %24, %19, %16, %12, %6
  %.0 = phi ptr [ null, %6 ], [ null, %12 ], [ null, %19 ], [ @_Py_NoneStruct, %39 ], [ @_Py_NoneStruct, %16 ], [ @_Py_NoneStruct, %24 ], [ null, %36 ], [ %35, %34 ]
  ret ptr %.0
}